#include <math.h>
#include <stdio.h>
#include <stdlib.h>
#include <string.h>

void main()
{
  int n;
  int func(int n);
  scanf("%d",&n);
  while(n!=1)
  {
    n=func(n);
  }
  printf("End\n");
}
int func(int n)
{
  if(n%2==1)
  {
     printf("%d*3+1=%d\n",n,3*n+1); 
	 n=3*n+1;
  }
  else
  {
	  printf("%d/2=%d\n",n,n/2);
	  n=n/2;
  }
  return(n);
}