; ModuleID = '34/1006.c'
source_filename = "34/1006.c"
target datalayout = "e-m:e-p270:32:32-p271:32:32-p272:64:64-i64:64-f80:128-n8:16:32:64-S128"
target triple = "x86_64-pc-linux-gnu"

@.str = private unnamed_addr constant [3 x i8] c"%d\00", align 1
@.str.1 = private unnamed_addr constant [5 x i8] c"End\0A\00", align 1
@.str.2 = private unnamed_addr constant [11 x i8] c"%d*3+1=%d\0A\00", align 1
@.str.3 = private unnamed_addr constant [9 x i8] c"%d/2=%d\0A\00", align 1

; Function Attrs: noinline nounwind uwtable
define dso_local void @main() #0 {
  %1 = alloca i32, align 4
  %2 = call i32 (i8*, ...) @__isoc99_scanf(i8* getelementptr inbounds ([3 x i8], [3 x i8]* @.str, i64 0, i64 0), i32* %1)
  br label %3

3:                                                ; preds = %6, %0
  %4 = load i32, i32* %1, align 4
  %5 = icmp ne i32 %4, 1
  br i1 %5, label %6, label %9

6:                                                ; preds = %3
  %7 = load i32, i32* %1, align 4
  %8 = call i32 @func(i32 %7)
  store i32 %8, i32* %1, align 4
  br label %3

9:                                                ; preds = %3
  %10 = call i32 (i8*, ...) @printf(i8* getelementptr inbounds ([5 x i8], [5 x i8]* @.str.1, i64 0, i64 0))
  ret void
}

declare dso_local i32 @__isoc99_scanf(i8*, ...) #1

; Function Attrs: noinline nounwind uwtable
define dso_local i32 @func(i32 %0) #0 {
  %2 = alloca i32, align 4
  store i32 %0, i32* %2, align 4
  %3 = load i32, i32* %2, align 4
  %4 = srem i32 %3, 2
  %5 = icmp eq i32 %4, 1
  br i1 %5, label %6, label %15

6:                                                ; preds = %1
  %7 = load i32, i32* %2, align 4
  %8 = load i32, i32* %2, align 4
  %9 = mul nsw i32 3, %8
  %10 = add nsw i32 %9, 1
  %11 = call i32 (i8*, ...) @printf(i8* getelementptr inbounds ([11 x i8], [11 x i8]* @.str.2, i64 0, i64 0), i32 %7, i32 %10)
  %12 = load i32, i32* %2, align 4
  %13 = mul nsw i32 3, %12
  %14 = add nsw i32 %13, 1
  store i32 %14, i32* %2, align 4
  br label %22

15:                                               ; preds = %1
  %16 = load i32, i32* %2, align 4
  %17 = load i32, i32* %2, align 4
  %18 = sdiv i32 %17, 2
  %19 = call i32 (i8*, ...) @printf(i8* getelementptr inbounds ([9 x i8], [9 x i8]* @.str.3, i64 0, i64 0), i32 %16, i32 %18)
  %20 = load i32, i32* %2, align 4
  %21 = sdiv i32 %20, 2
  store i32 %21, i32* %2, align 4
  br label %22

22:                                               ; preds = %15, %6
  %23 = load i32, i32* %2, align 4
  ret i32 %23
}

declare dso_local i32 @printf(i8*, ...) #1


!llvm.module.flags = !{!0}
!llvm.ident = !{!1}

!0 = !{i32 1, !"wchar_size", i32 4}
!1 = !{!"clang version 10.0.0-4ubuntu1 "}
